; ModuleID = '44/1131.c'
source_filename = "44/1131.c"
target datalayout = "e-m:e-p270:32:32-p271:32:32-p272:64:64-i64:64-f80:128-n8:16:32:64-S128"
target triple = "x86_64-pc-linux-gnu"

@.str = private unnamed_addr constant [3 x i8] c"%d\00", align 1
@.str.1 = private unnamed_addr constant [4 x i8] c"%d\0A\00", align 1

; Function Attrs: noinline nounwind uwtable
define dso_local void @main() #0 {
  %1 = alloca i32, align 4
  %2 = alloca i32, align 4
  store i32 0, i32* %2, align 4
  br label %3

3:                                                ; preds = %11, %0
  %4 = load i32, i32* %2, align 4
  %5 = icmp slt i32 %4, 6
  br i1 %5, label %6, label %14

6:                                                ; preds = %3
  %7 = call i32 (i8*, ...) @__isoc99_scanf(i8* getelementptr inbounds ([3 x i8], [3 x i8]* @.str, i64 0, i64 0), i32* %1)
  %8 = load i32, i32* %1, align 4
  %9 = call i32 @reverse(i32 %8)
  %10 = call i32 (i8*, ...) @printf(i8* getelementptr inbounds ([4 x i8], [4 x i8]* @.str.1, i64 0, i64 0), i32 %9)
  br label %11

11:                                               ; preds = %6
  %12 = load i32, i32* %2, align 4
  %13 = add nsw i32 %12, 1
  store i32 %13, i32* %2, align 4
  br label %3

14:                                               ; preds = %3
  ret void
}

declare dso_local i32 @__isoc99_scanf(i8*, ...) #1

declare dso_local i32 @printf(i8*, ...) #1

; Function Attrs: noinline nounwind uwtable
define dso_local i32 @reverse(i32 %0) #0 {
  %2 = alloca i32, align 4
  %3 = alloca [10 x i32], align 16
  %4 = alloca i32, align 4
  %5 = alloca i32, align 4
  %6 = alloca i32, align 4
  store i32 %0, i32* %2, align 4
  store i32 0, i32* %6, align 4
  store i32 0, i32* %4, align 4
  br label %7

7:                                                ; preds = %22, %1
  %8 = load i32, i32* %4, align 4
  %9 = icmp slt i32 %8, 10
  br i1 %9, label %10, label %25

10:                                               ; preds = %7
  %11 = load i32, i32* %2, align 4
  %12 = sitofp i32 %11 to double
  %13 = load i32, i32* %4, align 4
  %14 = sitofp i32 %13 to double
  %15 = call double @pow(double 1.000000e+01, double %14) #3
  %16 = fdiv double %12, %15
  %17 = fptosi double %16 to i32
  %18 = srem i32 %17, 10
  %19 = load i32, i32* %4, align 4
  %20 = sext i32 %19 to i64
  %21 = getelementptr inbounds [10 x i32], [10 x i32]* %3, i64 0, i64 %20
  store i32 %18, i32* %21, align 4
  br label %22

22:                                               ; preds = %10
  %23 = load i32, i32* %4, align 4
  %24 = add nsw i32 %23, 1
  store i32 %24, i32* %4, align 4
  br label %7

25:                                               ; preds = %7
  store i32 9, i32* %4, align 4
  store i32 0, i32* %5, align 4
  br label %26

26:                                               ; preds = %40, %25
  %27 = load i32, i32* %4, align 4
  %28 = icmp sge i32 %27, 0
  br i1 %28, label %29, label %43

29:                                               ; preds = %26
  %30 = load i32, i32* %4, align 4
  %31 = sext i32 %30 to i64
  %32 = getelementptr inbounds [10 x i32], [10 x i32]* %3, i64 0, i64 %31
  %33 = load i32, i32* %32, align 4
  %34 = icmp eq i32 %33, 0
  br i1 %34, label %35, label %38

35:                                               ; preds = %29
  %36 = load i32, i32* %5, align 4
  %37 = add nsw i32 %36, 1
  store i32 %37, i32* %5, align 4
  br label %39

38:                                               ; preds = %29
  br label %43

39:                                               ; preds = %35
  br label %40

40:                                               ; preds = %39
  %41 = load i32, i32* %4, align 4
  %42 = add nsw i32 %41, -1
  store i32 %42, i32* %4, align 4
  br label %26

43:                                               ; preds = %38, %26
  store i32 0, i32* %4, align 4
  br label %44

44:                                               ; preds = %64, %43
  %45 = load i32, i32* %4, align 4
  %46 = icmp slt i32 %45, 10
  br i1 %46, label %47, label %67

47:                                               ; preds = %44
  %48 = load i32, i32* %4, align 4
  %49 = sext i32 %48 to i64
  %50 = getelementptr inbounds [10 x i32], [10 x i32]* %3, i64 0, i64 %49
  %51 = load i32, i32* %50, align 4
  %52 = sitofp i32 %51 to double
  %53 = load i32, i32* %5, align 4
  %54 = sub nsw i32 9, %53
  %55 = load i32, i32* %4, align 4
  %56 = sub nsw i32 %54, %55
  %57 = sitofp i32 %56 to double
  %58 = call double @pow(double 1.000000e+01, double %57) #3
  %59 = fmul double %52, %58
  %60 = load i32, i32* %6, align 4
  %61 = sitofp i32 %60 to double
  %62 = fadd double %61, %59
  %63 = fptosi double %62 to i32
  store i32 %63, i32* %6, align 4
  br label %64

64:                                               ; preds = %47
  %65 = load i32, i32* %4, align 4
  %66 = add nsw i32 %65, 1
  store i32 %66, i32* %4, align 4
  br label %44

67:                                               ; preds = %44
  %68 = load i32, i32* %6, align 4
  ret i32 %68
}

; Function Attrs: nounwind
declare dso_local double @pow(double, double) #2


!llvm.module.flags = !{!0}
!llvm.ident = !{!1}

!0 = !{i32 1, !"wchar_size", i32 4}
!1 = !{!"clang version 10.0.0-4ubuntu1 "}
